target datalayout = "e-m:e-p270:32:32-p271:32:32-p272:64:64-i64:64-i128:128-f80:128-n8:16:32:64-S128"
target triple = "x86_64-pc-linux-gnu"

%struct.UTrie2 = type { ptr, ptr, ptr, i32, i32, i16, i16, i32, i32, i32, i32, ptr, i32, i8, i8, i16, ptr }
%struct.UNewTrie2 = type { [544 x i32], [35488 x i32], ptr, i32, i32, i32, i32, i32, i32, i32, i32, i32, i8, [34852 x i32] }

; Function Attrs: mustprogress nounwind uwtable
define internal noundef i32 @_ZL5get32PK9UNewTrie2ia(ptr noundef %0, i32 noundef %1, i8 noundef signext %2) #1 {
  %4 = alloca i32, align 4
  %5 = alloca ptr, align 8
  %6 = alloca i32, align 4
  %7 = alloca i8, align 1
  %8 = alloca i32, align 4
  %9 = alloca i32, align 4
  %10 = alloca i32, align 4
  store ptr %0, ptr %5, align 8, !tbaa !24
  store i32 %1, ptr %6, align 4, !tbaa !8
  store i8 %2, ptr %7, align 1, !tbaa !25
  call void @llvm.lifetime.start.p0(i64 4, ptr %8) #8
  call void @llvm.lifetime.start.p0(i64 4, ptr %9) #8
  %11 = load i32, ptr %6, align 4, !tbaa !8
  %12 = load ptr, ptr %5, align 8, !tbaa !24
  %13 = getelementptr inbounds nuw %struct.UNewTrie2, ptr %12, i32 0, i32 11
  %14 = load i32, ptr %13, align 8, !tbaa !26
  %15 = icmp sge i32 %11, %14
  br i1 %15, label %16, label %34

16:                                               ; preds = %3
  %17 = load i32, ptr %6, align 4, !tbaa !8
  %18 = and i32 %17, -1024
  %19 = icmp eq i32 %18, 55296
  br i1 %19, label %20, label %23

20:                                               ; preds = %16
  %21 = load i8, ptr %7, align 1, !tbaa !25
  %22 = icmp ne i8 %21, 0
  br i1 %22, label %23, label %34

23:                                               ; preds = %20, %16
  %24 = load ptr, ptr %5, align 8, !tbaa !24
  %25 = getelementptr inbounds nuw %struct.UNewTrie2, ptr %24, i32 0, i32 2
  %26 = load ptr, ptr %25, align 8, !tbaa !28
  %27 = load ptr, ptr %5, align 8, !tbaa !24
  %28 = getelementptr inbounds nuw %struct.UNewTrie2, ptr %27, i32 0, i32 7
  %29 = load i32, ptr %28, align 8, !tbaa !29
  %30 = sub nsw i32 %29, 4
  %31 = sext i32 %30 to i64
  %32 = getelementptr inbounds i32, ptr %26, i64 %31
  %33 = load i32, ptr %32, align 4, !tbaa !8
  store i32 %33, ptr %4, align 4
  store i32 1, ptr %10, align 4
  br label %74

34:                                               ; preds = %20, %3
  %35 = load i32, ptr %6, align 4, !tbaa !8
  %36 = and i32 %35, -1024
  %37 = icmp eq i32 %36, 55296
  br i1 %37, label %38, label %45

38:                                               ; preds = %34
  %39 = load i8, ptr %7, align 1, !tbaa !25
  %40 = icmp ne i8 %39, 0
  br i1 %40, label %41, label %45

41:                                               ; preds = %38
  %42 = load i32, ptr %6, align 4, !tbaa !8
  %43 = ashr i32 %42, 5
  %44 = add nsw i32 320, %43
  store i32 %44, ptr %8, align 4, !tbaa !8
  br label %57

45:                                               ; preds = %38, %34
  %46 = load ptr, ptr %5, align 8, !tbaa !24
  %47 = getelementptr inbounds nuw %struct.UNewTrie2, ptr %46, i32 0, i32 0
  %48 = load i32, ptr %6, align 4, !tbaa !8
  %49 = ashr i32 %48, 11
  %50 = sext i32 %49 to i64
  %51 = getelementptr inbounds [544 x i32], ptr %47, i64 0, i64 %50
  %52 = load i32, ptr %51, align 4, !tbaa !8
  %53 = load i32, ptr %6, align 4, !tbaa !8
  %54 = ashr i32 %53, 5
  %55 = and i32 %54, 63
  %56 = add nsw i32 %52, %55
  store i32 %56, ptr %8, align 4, !tbaa !8
  br label %57

57:                                               ; preds = %45, %41
  %58 = load ptr, ptr %5, align 8, !tbaa !24
  %59 = getelementptr inbounds nuw %struct.UNewTrie2, ptr %58, i32 0, i32 1
  %60 = load i32, ptr %8, align 4, !tbaa !8
  %61 = sext i32 %60 to i64
  %62 = getelementptr inbounds [35488 x i32], ptr %59, i64 0, i64 %61
  %63 = load i32, ptr %62, align 4, !tbaa !8
  store i32 %63, ptr %9, align 4, !tbaa !8
  %64 = load ptr, ptr %5, align 8, !tbaa !24
  %65 = getelementptr inbounds nuw %struct.UNewTrie2, ptr %64, i32 0, i32 2
  %66 = load ptr, ptr %65, align 8, !tbaa !28
  %67 = load i32, ptr %9, align 4, !tbaa !8
  %68 = load i32, ptr %6, align 4, !tbaa !8
  %69 = and i32 %68, 31
  %70 = add nsw i32 %67, %69
  %71 = sext i32 %70 to i64
  %72 = getelementptr inbounds i32, ptr %66, i64 %71
  %73 = load i32, ptr %72, align 4, !tbaa !8
  store i32 %73, ptr %4, align 4
  store i32 1, ptr %10, align 4
  br label %74

74:                                               ; preds = %57, %23
  call void @llvm.lifetime.end.p0(i64 4, ptr %9) #8
  call void @llvm.lifetime.end.p0(i64 4, ptr %8) #8
  %75 = load i32, ptr %4, align 4
  ret i32 %75
}

; Function Attrs: mustprogress uwtable
define i32 @utrie2_get32FromLeadSurrogateCodeUnit_77(ptr noundef %0, i32 noundef %1) #0 {
  %3 = alloca i32, align 4
  %4 = alloca ptr, align 8
  %5 = alloca i32, align 4
  store ptr %0, ptr %4, align 8, !tbaa !3
  store i32 %1, ptr %5, align 4, !tbaa !8
  %6 = load i32, ptr %5, align 4, !tbaa !8
  %7 = and i32 %6, -1024
  %8 = icmp eq i32 %7, 55296
  br i1 %8, label %13, label %9

9:                                                ; preds = %2
  %10 = load ptr, ptr %4, align 8, !tbaa !3
  %11 = getelementptr inbounds nuw %struct.UTrie2, ptr %10, i32 0, i32 8
  %12 = load i32, ptr %11, align 8, !tbaa !22
  store i32 %12, ptr %3, align 4
  br label %72

13:                                               ; preds = %2
  %14 = load ptr, ptr %4, align 8, !tbaa !3
  %15 = getelementptr inbounds nuw %struct.UTrie2, ptr %14, i32 0, i32 1
  %16 = load ptr, ptr %15, align 8, !tbaa !10
  %17 = icmp ne ptr %16, null
  br i1 %17, label %18, label %40

18:                                               ; preds = %13
  %19 = load ptr, ptr %4, align 8, !tbaa !3
  %20 = getelementptr inbounds nuw %struct.UTrie2, ptr %19, i32 0, i32 0
  %21 = load ptr, ptr %20, align 8, !tbaa !16
  %22 = load ptr, ptr %4, align 8, !tbaa !3
  %23 = getelementptr inbounds nuw %struct.UTrie2, ptr %22, i32 0, i32 0
  %24 = load ptr, ptr %23, align 8, !tbaa !16
  %25 = load i32, ptr %5, align 4, !tbaa !8
  %26 = ashr i32 %25, 5
  %27 = add nsw i32 0, %26
  %28 = sext i32 %27 to i64
  %29 = getelementptr inbounds i16, ptr %24, i64 %28
  %30 = load i16, ptr %29, align 2, !tbaa !17
  %31 = zext i16 %30 to i32
  %32 = shl i32 %31, 2
  %33 = load i32, ptr %5, align 4, !tbaa !8
  %34 = and i32 %33, 31
  %35 = add nsw i32 %32, %34
  %36 = sext i32 %35 to i64
  %37 = getelementptr inbounds i16, ptr %21, i64 %36
  %38 = load i16, ptr %37, align 2, !tbaa !17
  %39 = zext i16 %38 to i32
  store i32 %39, ptr %3, align 4
  br label %72

40:                                               ; preds = %13
  %41 = load ptr, ptr %4, align 8, !tbaa !3
  %42 = getelementptr inbounds nuw %struct.UTrie2, ptr %41, i32 0, i32 2
  %43 = load ptr, ptr %42, align 8, !tbaa !21
  %44 = icmp ne ptr %43, null
  br i1 %44, label %45, label %66

45:                                               ; preds = %40
  %46 = load ptr, ptr %4, align 8, !tbaa !3
  %47 = getelementptr inbounds nuw %struct.UTrie2, ptr %46, i32 0, i32 2
  %48 = load ptr, ptr %47, align 8, !tbaa !21
  %49 = load ptr, ptr %4, align 8, !tbaa !3
  %50 = getelementptr inbounds nuw %struct.UTrie2, ptr %49, i32 0, i32 0
  %51 = load ptr, ptr %50, align 8, !tbaa !16
  %52 = load i32, ptr %5, align 4, !tbaa !8
  %53 = ashr i32 %52, 5
  %54 = add nsw i32 0, %53
  %55 = sext i32 %54 to i64
  %56 = getelementptr inbounds i16, ptr %51, i64 %55
  %57 = load i16, ptr %56, align 2, !tbaa !17
  %58 = zext i16 %57 to i32
  %59 = shl i32 %58, 2
  %60 = load i32, ptr %5, align 4, !tbaa !8
  %61 = and i32 %60, 31
  %62 = add nsw i32 %59, %61
  %63 = sext i32 %62 to i64
  %64 = getelementptr inbounds i32, ptr %48, i64 %63
  %65 = load i32, ptr %64, align 4, !tbaa !8
  store i32 %65, ptr %3, align 4
  br label %72

66:                                               ; preds = %40
  %67 = load ptr, ptr %4, align 8, !tbaa !3
  %68 = getelementptr inbounds nuw %struct.UTrie2, ptr %67, i32 0, i32 16
  %69 = load ptr, ptr %68, align 8, !tbaa !23
  %70 = load i32, ptr %5, align 4, !tbaa !8
  %71 = call noundef i32 @_ZL5get32PK9UNewTrie2ia(ptr noundef %69, i32 noundef %70, i8 noundef signext 0)
  store i32 %71, ptr %3, align 4
  br label %72

72:                                               ; preds = %66, %45, %18, %9
  %73 = load i32, ptr %3, align 4
  ret i32 %73
}