; Function Attrs: mustprogress nofree norecurse nosync nounwind willreturn memory(read, inaccessiblemem: none) uwtable
define i32 @utrie2_get32FromLeadSurrogateCodeUnit_77(ptr noundef readonly captures(none) %0, i32 noundef %1) local_unnamed_addr #0 {
  %3 = and i32 %1, -1024
  %4 = icmp eq i32 %3, 55296
  br i1 %4, label %8, label %5

5:                                                ; preds = %2
  %6 = getelementptr inbounds nuw i8, ptr %0, i64 40
  %7 = load i32, ptr %6, align 8, !tbaa !20
  br label %58

8:                                                ; preds = %2
  %9 = getelementptr inbounds nuw i8, ptr %0, i64 8
  %10 = load ptr, ptr %9, align 8, !tbaa !3
  %.not = icmp eq ptr %10, null
  br i1 %.not, label %25, label %11

11:                                               ; preds = %8
  %12 = load ptr, ptr %0, align 8, !tbaa !13
  %13 = lshr i32 %1, 5
  %14 = zext nneg i32 %13 to i64
  %15 = getelementptr inbounds nuw i16, ptr %12, i64 %14
  %16 = load i16, ptr %15, align 2, !tbaa !14
  %17 = zext i16 %16 to i32
  %18 = shl nuw nsw i32 %17, 2
  %19 = and i32 %1, 31
  %20 = add nuw nsw i32 %18, %19
  %21 = zext nneg i32 %20 to i64
  %22 = getelementptr inbounds nuw i16, ptr %12, i64 %21
  %23 = load i16, ptr %22, align 2, !tbaa !14
  %24 = zext i16 %23 to i32
  br label %58

25:                                               ; preds = %8
  %26 = getelementptr inbounds nuw i8, ptr %0, i64 16
  %27 = load ptr, ptr %26, align 8, !tbaa !18
  %.not15 = icmp eq ptr %27, null
  br i1 %.not15, label %_ZL5get32PK9UNewTrie2ia.exit, label %28

28:                                               ; preds = %25
  %29 = load ptr, ptr %0, align 8, !tbaa !13
  %30 = lshr i32 %1, 5
  %31 = zext nneg i32 %30 to i64
  %32 = getelementptr inbounds nuw i16, ptr %29, i64 %31
  %33 = load i16, ptr %32, align 2, !tbaa !14
  %34 = zext i16 %33 to i32
  %35 = shl nuw nsw i32 %34, 2
  %36 = and i32 %1, 31
  %37 = add nuw nsw i32 %35, %36
  %38 = zext nneg i32 %37 to i64
  %39 = getelementptr inbounds nuw i32, ptr %27, i64 %38
  %40 = load i32, ptr %39, align 4, !tbaa !19
  br label %58

_ZL5get32PK9UNewTrie2ia.exit:                     ; preds = %25
  %41 = getelementptr inbounds nuw i8, ptr %0, i64 72
  %42 = load ptr, ptr %41, align 8, !tbaa !21
  %43 = getelementptr inbounds nuw i8, ptr %42, i64 108
  %44 = load i32, ptr %43, align 4, !tbaa !19
  %45 = lshr i32 %1, 5
  %46 = and i32 %45, 31
  %47 = add nsw i32 %44, %46
  %48 = getelementptr inbounds nuw i8, ptr %42, i64 2176
  %49 = sext i32 %47 to i64
  %50 = getelementptr inbounds [35488 x i32], ptr %48, i64 0, i64 %49
  %51 = load i32, ptr %50, align 4, !tbaa !19
  %52 = getelementptr inbounds nuw i8, ptr %42, i64 144128
  %53 = load ptr, ptr %52, align 8, !tbaa !24
  %54 = and i32 %1, 31
  %55 = add nsw i32 %51, %54
  %56 = sext i32 %55 to i64
  %57 = getelementptr inbounds i32, ptr %53, i64 %56
  %.0.i = load i32, ptr %57, align 4, !tbaa !19
  br label %58

58:                                               ; preds = %_ZL5get32PK9UNewTrie2ia.exit, %28, %11, %5
  %.0 = phi i32 [ %24, %11 ], [ %40, %28 ], [ %.0.i, %_ZL5get32PK9UNewTrie2ia.exit ], [ %7, %5 ]
  ret i32 %.0
}